target datalayout = "e-m:e-p270:32:32-p271:32:32-p272:64:64-i64:64-i128:128-f80:128-n8:16:32:64-S128"
target triple = "x86_64-pc-linux-gnu"

%struct.lua_TValue = type { %union.Value, i32 }
%union.Value = type { ptr }
%struct.lua_State = type { ptr, i8, i8, i8, ptr, ptr, ptr, ptr, ptr, ptr, ptr, ptr, ptr, i32, i32, i16, i16, i8, i8, i32, i32, ptr, %struct.lua_TValue, %struct.lua_TValue, ptr, ptr, ptr, i64 }
%struct.global_State = type { %struct.stringtable, ptr, ptr, i8, i8, i32, ptr, ptr, ptr, ptr, ptr, ptr, %struct.Mbuffer, i64, i64, i64, i64, i32, i32, ptr, %struct.lua_TValue, ptr, %struct.UpVal, [9 x ptr], [17 x ptr] }
%struct.stringtable = type { ptr, i32, i32 }
%struct.Mbuffer = type { ptr, i64, i64 }
%struct.UpVal = type { ptr, i8, i8, ptr, %union.anon }
%union.anon = type { %struct.lua_TValue }

; Function Attrs: nounwind uwtable
define dso_local i32 @lua_gc(ptr noundef %0, i32 noundef %1, i32 noundef %2) #0 {
  %4 = alloca ptr, align 8
  %5 = alloca i32, align 4
  %6 = alloca i32, align 4
  %7 = alloca i32, align 4
  %8 = alloca ptr, align 8
  %9 = alloca i64, align 8
  store ptr %0, ptr %4, align 8, !tbaa !4
  store i32 %1, ptr %5, align 4, !tbaa !25
  store i32 %2, ptr %6, align 4, !tbaa !25
  call void @llvm.lifetime.start.p0(i64 4, ptr %7) #6
  store i32 0, ptr %7, align 4, !tbaa !25
  call void @llvm.lifetime.start.p0(i64 8, ptr %8) #6
  %10 = load ptr, ptr %4, align 8, !tbaa !4
  %11 = getelementptr inbounds nuw %struct.lua_State, ptr %10, i32 0, i32 6
  %12 = load ptr, ptr %11, align 8, !tbaa !35
  store ptr %12, ptr %8, align 8, !tbaa !76
  %13 = load i32, ptr %5, align 4, !tbaa !25
  switch i32 %13, label %90 [
    i32 0, label %14
    i32 1, label %17
    i32 2, label %23
    i32 3, label %25
    i32 4, label %31
    i32 5, label %37
    i32 6, label %76
    i32 7, label %83
  ]

14:                                               ; preds = %3
  %15 = load ptr, ptr %8, align 8, !tbaa !76
  %16 = getelementptr inbounds nuw %struct.global_State, ptr %15, i32 0, i32 13
  store i64 -3, ptr %16, align 8, !tbaa !44
  br label %91

17:                                               ; preds = %3
  %18 = load ptr, ptr %8, align 8, !tbaa !76
  %19 = getelementptr inbounds nuw %struct.global_State, ptr %18, i32 0, i32 14
  %20 = load i64, ptr %19, align 8, !tbaa !43
  %21 = load ptr, ptr %8, align 8, !tbaa !76
  %22 = getelementptr inbounds nuw %struct.global_State, ptr %21, i32 0, i32 13
  store i64 %20, ptr %22, align 8, !tbaa !44
  br label %91

23:                                               ; preds = %3
  %24 = load ptr, ptr %4, align 8, !tbaa !4
  call void @luaC_fullgc(ptr noundef %24)
  br label %91

25:                                               ; preds = %3
  %26 = load ptr, ptr %8, align 8, !tbaa !76
  %27 = getelementptr inbounds nuw %struct.global_State, ptr %26, i32 0, i32 14
  %28 = load i64, ptr %27, align 8, !tbaa !43
  %29 = lshr i64 %28, 10
  %30 = trunc i64 %29 to i32
  store i32 %30, ptr %7, align 4, !tbaa !25
  br label %91

31:                                               ; preds = %3
  %32 = load ptr, ptr %8, align 8, !tbaa !76
  %33 = getelementptr inbounds nuw %struct.global_State, ptr %32, i32 0, i32 14
  %34 = load i64, ptr %33, align 8, !tbaa !43
  %35 = and i64 %34, 1023
  %36 = trunc i64 %35 to i32
  store i32 %36, ptr %7, align 4, !tbaa !25
  br label %91

37:                                               ; preds = %3
  call void @llvm.lifetime.start.p0(i64 8, ptr %9) #6
  %38 = load i32, ptr %6, align 4, !tbaa !25
  %39 = sext i32 %38 to i64
  %40 = shl i64 %39, 10
  store i64 %40, ptr %9, align 8, !tbaa !55
  %41 = load i64, ptr %9, align 8, !tbaa !55
  %42 = load ptr, ptr %8, align 8, !tbaa !76
  %43 = getelementptr inbounds nuw %struct.global_State, ptr %42, i32 0, i32 14
  %44 = load i64, ptr %43, align 8, !tbaa !43
  %45 = icmp ule i64 %41, %44
  br i1 %45, label %46, label %54

46:                                               ; preds = %37
  %47 = load ptr, ptr %8, align 8, !tbaa !76
  %48 = getelementptr inbounds nuw %struct.global_State, ptr %47, i32 0, i32 14
  %49 = load i64, ptr %48, align 8, !tbaa !43
  %50 = load i64, ptr %9, align 8, !tbaa !55
  %51 = sub i64 %49, %50
  %52 = load ptr, ptr %8, align 8, !tbaa !76
  %53 = getelementptr inbounds nuw %struct.global_State, ptr %52, i32 0, i32 13
  store i64 %51, ptr %53, align 8, !tbaa !44
  br label %57

54:                                               ; preds = %37
  %55 = load ptr, ptr %8, align 8, !tbaa !76
  %56 = getelementptr inbounds nuw %struct.global_State, ptr %55, i32 0, i32 13
  store i64 0, ptr %56, align 8, !tbaa !44
  br label %57

57:                                               ; preds = %54, %46
  br label %58

58:                                               ; preds = %74, %57
  %59 = load ptr, ptr %8, align 8, !tbaa !76
  %60 = getelementptr inbounds nuw %struct.global_State, ptr %59, i32 0, i32 13
  %61 = load i64, ptr %60, align 8, !tbaa !44
  %62 = load ptr, ptr %8, align 8, !tbaa !76
  %63 = getelementptr inbounds nuw %struct.global_State, ptr %62, i32 0, i32 14
  %64 = load i64, ptr %63, align 8, !tbaa !43
  %65 = icmp ule i64 %61, %64
  br i1 %65, label %66, label %75

66:                                               ; preds = %58
  %67 = load ptr, ptr %4, align 8, !tbaa !4
  call void @luaC_step(ptr noundef %67)
  %68 = load ptr, ptr %8, align 8, !tbaa !76
  %69 = getelementptr inbounds nuw %struct.global_State, ptr %68, i32 0, i32 4
  %70 = load i8, ptr %69, align 1, !tbaa !77
  %71 = zext i8 %70 to i32
  %72 = icmp eq i32 %71, 0
  br i1 %72, label %73, label %74

73:                                               ; preds = %66
  store i32 1, ptr %7, align 4, !tbaa !25
  br label %75

74:                                               ; preds = %66
  br label %58, !llvm.loop !78

75:                                               ; preds = %73, %58
  call void @llvm.lifetime.end.p0(i64 8, ptr %9) #6
  br label %91

76:                                               ; preds = %3
  %77 = load ptr, ptr %8, align 8, !tbaa !76
  %78 = getelementptr inbounds nuw %struct.global_State, ptr %77, i32 0, i32 17
  %79 = load i32, ptr %78, align 8, !tbaa !79
  store i32 %79, ptr %7, align 4, !tbaa !25
  %80 = load i32, ptr %6, align 4, !tbaa !25
  %81 = load ptr, ptr %8, align 8, !tbaa !76
  %82 = getelementptr inbounds nuw %struct.global_State, ptr %81, i32 0, i32 17
  store i32 %80, ptr %82, align 8, !tbaa !79
  br label %91

83:                                               ; preds = %3
  %84 = load ptr, ptr %8, align 8, !tbaa !76
  %85 = getelementptr inbounds nuw %struct.global_State, ptr %84, i32 0, i32 18
  %86 = load i32, ptr %85, align 4, !tbaa !80
  store i32 %86, ptr %7, align 4, !tbaa !25
  %87 = load i32, ptr %6, align 4, !tbaa !25
  %88 = load ptr, ptr %8, align 8, !tbaa !76
  %89 = getelementptr inbounds nuw %struct.global_State, ptr %88, i32 0, i32 18
  store i32 %87, ptr %89, align 4, !tbaa !80
  br label %91

90:                                               ; preds = %3
  store i32 -1, ptr %7, align 4, !tbaa !25
  br label %91

91:                                               ; preds = %90, %83, %76, %75, %31, %25, %23, %17, %14
  %92 = load i32, ptr %7, align 4, !tbaa !25
  call void @llvm.lifetime.end.p0(i64 8, ptr %8) #6
  call void @llvm.lifetime.end.p0(i64 4, ptr %7) #6
  ret i32 %92
}