; Function Attrs: nounwind uwtable
define dso_local i32 @lua_gc(ptr noundef %0, i32 noundef %1, i32 noundef %2) local_unnamed_addr #2 {
  %4 = getelementptr inbounds nuw i8, ptr %0, i64 32
  %5 = load ptr, ptr %4, align 8, !tbaa !29
  switch i32 %1, label %.loopexit [
    i32 0, label %6
    i32 1, label %8
    i32 2, label %12
    i32 3, label %13
    i32 4, label %18
    i32 5, label %23
    i32 6, label %36
    i32 7, label %39
  ]

6:                                                ; preds = %3
  %7 = getelementptr inbounds nuw i8, ptr %5, i64 112
  store i64 -3, ptr %7, align 8, !tbaa !39
  br label %.loopexit

8:                                                ; preds = %3
  %9 = getelementptr inbounds nuw i8, ptr %5, i64 120
  %10 = load i64, ptr %9, align 8, !tbaa !38
  %11 = getelementptr inbounds nuw i8, ptr %5, i64 112
  store i64 %10, ptr %11, align 8, !tbaa !39
  br label %.loopexit

12:                                               ; preds = %3
  tail call void @luaC_fullgc(ptr noundef nonnull %0) #14
  br label %.loopexit

13:                                               ; preds = %3
  %14 = getelementptr inbounds nuw i8, ptr %5, i64 120
  %15 = load i64, ptr %14, align 8, !tbaa !38
  %16 = lshr i64 %15, 10
  %17 = trunc i64 %16 to i32
  br label %.loopexit

18:                                               ; preds = %3
  %19 = getelementptr inbounds nuw i8, ptr %5, i64 120
  %20 = load i64, ptr %19, align 8, !tbaa !38
  %21 = trunc i64 %20 to i32
  %22 = and i32 %21, 1023
  br label %.loopexit

23:                                               ; preds = %3
  %24 = sext i32 %2 to i64
  %25 = shl nsw i64 %24, 10
  %26 = getelementptr inbounds nuw i8, ptr %5, i64 120
  %27 = load i64, ptr %26, align 8, !tbaa !38
  %spec.select = tail call i64 @llvm.usub.sat.i64(i64 %27, i64 %25)
  %28 = getelementptr inbounds nuw i8, ptr %5, i64 112
  store i64 %spec.select, ptr %28, align 8, !tbaa !39
  %29 = getelementptr inbounds nuw i8, ptr %5, i64 33
  br label %30

30:                                               ; preds = %33, %23
  %31 = load i64, ptr %28, align 8, !tbaa !39
  %32 = load i64, ptr %26, align 8, !tbaa !38
  %.not27 = icmp ugt i64 %31, %32
  br i1 %.not27, label %.loopexit, label %33

33:                                               ; preds = %30
  tail call void @luaC_step(ptr noundef %0) #14
  %34 = load i8, ptr %29, align 1, !tbaa !59
  %35 = icmp eq i8 %34, 0
  br i1 %35, label %.loopexit, label %30, !llvm.loop !60

36:                                               ; preds = %3
  %37 = getelementptr inbounds nuw i8, ptr %5, i64 144
  %38 = load i32, ptr %37, align 8, !tbaa !61
  store i32 %2, ptr %37, align 8, !tbaa !61
  br label %.loopexit

39:                                               ; preds = %3
  %40 = getelementptr inbounds nuw i8, ptr %5, i64 148
  %41 = load i32, ptr %40, align 4, !tbaa !62
  store i32 %2, ptr %40, align 4, !tbaa !62
  br label %.loopexit

.loopexit:                                        ; preds = %30, %33, %3, %39, %36, %18, %13, %12, %8, %6
  %.0 = phi i32 [ %41, %39 ], [ %38, %36 ], [ %22, %18 ], [ %17, %13 ], [ 0, %12 ], [ 0, %8 ], [ 0, %6 ], [ -1, %3 ], [ 1, %33 ], [ 0, %30 ]
  ret i32 %.0
}